

Microchip MPLAB XC8 Assembler V2.31 build 20201012212115 
                                                                                               Tue Feb 23 20:23:04 2021

Microchip MPLAB XC8 C Compiler v2.31 (Free license) build 20201012212115 Og1 
     1                           	processor	16F887
     2                           	pagewidth 120
     3                           	opt	flic
     4                           	psect	cinit,global,class=CODE,merge=1,delta=2
     5                           	psect	bssCOMMON,global,class=COMMON,space=1,delta=1,noexec
     6                           	psect	cstackCOMMON,global,class=COMMON,space=1,delta=1,noexec
     7                           	psect	cstackBANK0,global,class=BANK0,space=1,delta=1,noexec
     8                           	psect	maintext,global,class=CODE,split=1,delta=2
     9                           	psect	text1,local,class=CODE,merge=1,delta=2
    10                           	psect	text2,local,class=CODE,merge=1,delta=2
    11                           	psect	text3,local,class=CODE,merge=1,delta=2
    12                           	psect	text4,local,class=CODE,merge=1,delta=2
    13                           	psect	text5,local,class=CODE,merge=1,delta=2
    14                           	psect	intentry,global,class=CODE,delta=2
    15                           	psect	config,global,abs,ovrld,class=CONFIG,space=4,delta=2,noexec
    16                           	dabs	1,0x7E,2
    17  0000                     
    18                           ; Version 2.20
    19                           ; Generated 12/02/2020 GMT
    20                           ; 
    21                           ; Copyright © 2020, Microchip Technology Inc. and its subsidiaries ("Microchip")
    22                           ; All rights reserved.
    23                           ; 
    24                           ; This software is developed by Microchip Technology Inc. and its subsidiaries ("Microch
      +                          ip").
    25                           ; 
    26                           ; Redistribution and use in source and binary forms, with or without modification, are
    27                           ; permitted provided that the following conditions are met:
    28                           ; 
    29                           ;     1. Redistributions of source code must retain the above copyright notice, this lis
      +                          t of
    30                           ;        conditions and the following disclaimer.
    31                           ; 
    32                           ;     2. Redistributions in binary form must reproduce the above copyright notice, this 
      +                          list
    33                           ;        of conditions and the following disclaimer in the documentation and/or other
    34                           ;        materials provided with the distribution.
    35                           ; 
    36                           ;     3. Microchip's name may not be used to endorse or promote products derived from th
      +                          is
    37                           ;        software without specific prior written permission.
    38                           ; 
    39                           ; THIS SOFTWARE IS PROVIDED BY MICROCHIP "AS IS" AND ANY EXPRESS OR IMPLIED WARRANTIES,
    40                           ; INCLUDING, BUT NOT LIMITED TO, THE IMPLIED WARRANTIES OF MERCHANTABILITY AND FITNESS F
      +                          OR
    41                           ; PURPOSE ARE DISCLAIMED.  IN NO EVENT SHALL MICROCHIP BE LIABLE FOR ANY DIRECT, INDIREC
      +                          T,
    42                           ; INCIDENTAL, SPECIAL, EXEMPLARY, OR CONSEQUENTIAL DAMAGES (INCLUDING BUT NOT LIMITED TO
    43                           ; PROCUREMENT OF SUBSTITUTE GOODS OR SERVICES; LOSS OF USE, DATA OR PROFITS; OR BUSINESS
    44                           ; INTERRUPTION) HOWSOEVER CAUSED AND ON ANY THEORY OF LIABILITY, WHETHER IN CONTRACT, ST
      +                          RICT
    45                           ; LIABILITY, OR TORT (INCLUDING NEGLIGENCE OR OTHERWISE) ARISING IN ANY WAY OUT OF THE U
      +                          SE OF
    46                           ; THIS SOFTWARE, EVEN IF ADVISED OF THE POSSIBILITY OF SUCH DAMAGE.
    47                           ; 
    48                           ; 
    49                           ; Code-generator required, PIC16F887 Definitions
    50                           ; 
    51                           ; SFR Addresses
    52  0000                     	;# 
    53  0001                     	;# 
    54  0002                     	;# 
    55  0003                     	;# 
    56  0004                     	;# 
    57  0005                     	;# 
    58  0006                     	;# 
    59  0007                     	;# 
    60  0008                     	;# 
    61  0009                     	;# 
    62  000A                     	;# 
    63  000B                     	;# 
    64  000C                     	;# 
    65  000D                     	;# 
    66  000E                     	;# 
    67  000E                     	;# 
    68  000F                     	;# 
    69  0010                     	;# 
    70  0011                     	;# 
    71  0012                     	;# 
    72  0013                     	;# 
    73  0014                     	;# 
    74  0015                     	;# 
    75  0015                     	;# 
    76  0016                     	;# 
    77  0017                     	;# 
    78  0018                     	;# 
    79  0019                     	;# 
    80  001A                     	;# 
    81  001B                     	;# 
    82  001B                     	;# 
    83  001C                     	;# 
    84  001D                     	;# 
    85  001E                     	;# 
    86  001F                     	;# 
    87  0081                     	;# 
    88  0085                     	;# 
    89  0086                     	;# 
    90  0087                     	;# 
    91  0088                     	;# 
    92  0089                     	;# 
    93  008C                     	;# 
    94  008D                     	;# 
    95  008E                     	;# 
    96  008F                     	;# 
    97  0090                     	;# 
    98  0091                     	;# 
    99  0092                     	;# 
   100  0093                     	;# 
   101  0093                     	;# 
   102  0093                     	;# 
   103  0094                     	;# 
   104  0095                     	;# 
   105  0096                     	;# 
   106  0097                     	;# 
   107  0098                     	;# 
   108  0099                     	;# 
   109  009A                     	;# 
   110  009B                     	;# 
   111  009C                     	;# 
   112  009D                     	;# 
   113  009E                     	;# 
   114  009F                     	;# 
   115  0105                     	;# 
   116  0107                     	;# 
   117  0108                     	;# 
   118  0109                     	;# 
   119  010C                     	;# 
   120  010C                     	;# 
   121  010D                     	;# 
   122  010E                     	;# 
   123  010F                     	;# 
   124  0185                     	;# 
   125  0187                     	;# 
   126  0188                     	;# 
   127  0189                     	;# 
   128  018C                     	;# 
   129  018D                     	;# 
   130  0000                     	;# 
   131  0001                     	;# 
   132  0002                     	;# 
   133  0003                     	;# 
   134  0004                     	;# 
   135  0005                     	;# 
   136  0006                     	;# 
   137  0007                     	;# 
   138  0008                     	;# 
   139  0009                     	;# 
   140  000A                     	;# 
   141  000B                     	;# 
   142  000C                     	;# 
   143  000D                     	;# 
   144  000E                     	;# 
   145  000E                     	;# 
   146  000F                     	;# 
   147  0010                     	;# 
   148  0011                     	;# 
   149  0012                     	;# 
   150  0013                     	;# 
   151  0014                     	;# 
   152  0015                     	;# 
   153  0015                     	;# 
   154  0016                     	;# 
   155  0017                     	;# 
   156  0018                     	;# 
   157  0019                     	;# 
   158  001A                     	;# 
   159  001B                     	;# 
   160  001B                     	;# 
   161  001C                     	;# 
   162  001D                     	;# 
   163  001E                     	;# 
   164  001F                     	;# 
   165  0081                     	;# 
   166  0085                     	;# 
   167  0086                     	;# 
   168  0087                     	;# 
   169  0088                     	;# 
   170  0089                     	;# 
   171  008C                     	;# 
   172  008D                     	;# 
   173  008E                     	;# 
   174  008F                     	;# 
   175  0090                     	;# 
   176  0091                     	;# 
   177  0092                     	;# 
   178  0093                     	;# 
   179  0093                     	;# 
   180  0093                     	;# 
   181  0094                     	;# 
   182  0095                     	;# 
   183  0096                     	;# 
   184  0097                     	;# 
   185  0098                     	;# 
   186  0099                     	;# 
   187  009A                     	;# 
   188  009B                     	;# 
   189  009C                     	;# 
   190  009D                     	;# 
   191  009E                     	;# 
   192  009F                     	;# 
   193  0105                     	;# 
   194  0107                     	;# 
   195  0108                     	;# 
   196  0109                     	;# 
   197  010C                     	;# 
   198  010C                     	;# 
   199  010D                     	;# 
   200  010E                     	;# 
   201  010F                     	;# 
   202  0185                     	;# 
   203  0187                     	;# 
   204  0188                     	;# 
   205  0189                     	;# 
   206  018C                     	;# 
   207  018D                     	;# 
   208  0000                     	;# 
   209  0001                     	;# 
   210  0002                     	;# 
   211  0003                     	;# 
   212  0004                     	;# 
   213  0005                     	;# 
   214  0006                     	;# 
   215  0007                     	;# 
   216  0008                     	;# 
   217  0009                     	;# 
   218  000A                     	;# 
   219  000B                     	;# 
   220  000C                     	;# 
   221  000D                     	;# 
   222  000E                     	;# 
   223  000E                     	;# 
   224  000F                     	;# 
   225  0010                     	;# 
   226  0011                     	;# 
   227  0012                     	;# 
   228  0013                     	;# 
   229  0014                     	;# 
   230  0015                     	;# 
   231  0015                     	;# 
   232  0016                     	;# 
   233  0017                     	;# 
   234  0018                     	;# 
   235  0019                     	;# 
   236  001A                     	;# 
   237  001B                     	;# 
   238  001B                     	;# 
   239  001C                     	;# 
   240  001D                     	;# 
   241  001E                     	;# 
   242  001F                     	;# 
   243  0081                     	;# 
   244  0085                     	;# 
   245  0086                     	;# 
   246  0087                     	;# 
   247  0088                     	;# 
   248  0089                     	;# 
   249  008C                     	;# 
   250  008D                     	;# 
   251  008E                     	;# 
   252  008F                     	;# 
   253  0090                     	;# 
   254  0091                     	;# 
   255  0092                     	;# 
   256  0093                     	;# 
   257  0093                     	;# 
   258  0093                     	;# 
   259  0094                     	;# 
   260  0095                     	;# 
   261  0096                     	;# 
   262  0097                     	;# 
   263  0098                     	;# 
   264  0099                     	;# 
   265  009A                     	;# 
   266  009B                     	;# 
   267  009C                     	;# 
   268  009D                     	;# 
   269  009E                     	;# 
   270  009F                     	;# 
   271  0105                     	;# 
   272  0107                     	;# 
   273  0108                     	;# 
   274  0109                     	;# 
   275  010C                     	;# 
   276  010C                     	;# 
   277  010D                     	;# 
   278  010E                     	;# 
   279  010F                     	;# 
   280  0185                     	;# 
   281  0187                     	;# 
   282  0188                     	;# 
   283  0189                     	;# 
   284  018C                     	;# 
   285  018D                     	;# 
   286  0000                     	;# 
   287  0001                     	;# 
   288  0002                     	;# 
   289  0003                     	;# 
   290  0004                     	;# 
   291  0005                     	;# 
   292  0006                     	;# 
   293  0007                     	;# 
   294  0008                     	;# 
   295  0009                     	;# 
   296  000A                     	;# 
   297  000B                     	;# 
   298  000C                     	;# 
   299  000D                     	;# 
   300  000E                     	;# 
   301  000E                     	;# 
   302  000F                     	;# 
   303  0010                     	;# 
   304  0011                     	;# 
   305  0012                     	;# 
   306  0013                     	;# 
   307  0014                     	;# 
   308  0015                     	;# 
   309  0015                     	;# 
   310  0016                     	;# 
   311  0017                     	;# 
   312  0018                     	;# 
   313  0019                     	;# 
   314  001A                     	;# 
   315  001B                     	;# 
   316  001B                     	;# 
   317  001C                     	;# 
   318  001D                     	;# 
   319  001E                     	;# 
   320  001F                     	;# 
   321  0081                     	;# 
   322  0085                     	;# 
   323  0086                     	;# 
   324  0087                     	;# 
   325  0088                     	;# 
   326  0089                     	;# 
   327  008C                     	;# 
   328  008D                     	;# 
   329  008E                     	;# 
   330  008F                     	;# 
   331  0090                     	;# 
   332  0091                     	;# 
   333  0092                     	;# 
   334  0093                     	;# 
   335  0093                     	;# 
   336  0093                     	;# 
   337  0094                     	;# 
   338  0095                     	;# 
   339  0096                     	;# 
   340  0097                     	;# 
   341  0098                     	;# 
   342  0099                     	;# 
   343  009A                     	;# 
   344  009B                     	;# 
   345  009C                     	;# 
   346  009D                     	;# 
   347  009E                     	;# 
   348  009F                     	;# 
   349  0105                     	;# 
   350  0107                     	;# 
   351  0108                     	;# 
   352  0109                     	;# 
   353  010C                     	;# 
   354  010C                     	;# 
   355  010D                     	;# 
   356  010E                     	;# 
   357  010F                     	;# 
   358  0185                     	;# 
   359  0187                     	;# 
   360  0188                     	;# 
   361  0189                     	;# 
   362  018C                     	;# 
   363  018D                     	;# 
   364  0013                     _SSPBUF	set	19
   365  0014                     _SSPCON	set	20
   366  000B                     _INTCONbits	set	11
   367  0009                     _PORTE	set	9
   368  0007                     _PORTC	set	7
   369  0006                     _PORTB	set	6
   370  0005                     _PORTA	set	5
   371  0006                     _PORTBbits	set	6
   372  001F                     _ADCON0bits	set	31
   373  0008                     _PORTD	set	8
   374  001E                     _ADRESH	set	30
   375  000C                     _PIR1bits	set	12
   376  0094                     _SSPSTATbits	set	148
   377  0094                     _SSPSTAT	set	148
   378  0086                     _TRISBbits	set	134
   379  0089                     _TRISEbits	set	137
   380  008C                     _PIE1bits	set	140
   381  009F                     _ADCON1bits	set	159
   382  0085                     _TRISAbits	set	133
   383  0089                     _TRISE	set	137
   384  0088                     _TRISD	set	136
   385  0087                     _TRISC	set	135
   386  0086                     _TRISB	set	134
   387  0085                     _TRISA	set	133
   388  043B                     _TRISC3	set	1083
   389  043D                     _TRISC5	set	1085
   390  0189                     _ANSELHbits	set	393
   391  0188                     _ANSELbits	set	392
   392  0189                     _ANSELH	set	393
   393  0188                     _ANSEL	set	392
   394                           
   395                           	psect	cinit
   396  000F                     start_initialization:	
   397                           ; #config settings
   398                           
   399  000F                     __initialization:
   400                           
   401                           ; Clear objects allocated to COMMON
   402  000F  01F7               	clrf	__pbssCOMMON& (0+127)
   403  0010  01F8               	clrf	(__pbssCOMMON+1)& (0+127)
   404  0011  01F9               	clrf	(__pbssCOMMON+2)& (0+127)
   405  0012                     end_of_initialization:	
   406                           ;End of C runtime variable initialization code
   407                           
   408  0012                     __end_of__initialization:
   409  0012  0183               	clrf	3
   410  0013  120A  118A  2923   	ljmp	_main	;jump to C main() function
   411                           
   412                           	psect	bssCOMMON
   413  0077                     __pbssCOMMON:
   414  0077                     _temperatura:
   415  0077                     	ds	2
   416  0079                     _contador:
   417  0079                     	ds	1
   418                           
   419                           	psect	cstackCOMMON
   420  0070                     __pcstackCOMMON:
   421  0070                     ?_setup:
   422  0070                     ?_spiWrite:	
   423                           ; 1 bytes @ 0x0
   424                           
   425  0070                     ?_isr:	
   426                           ; 1 bytes @ 0x0
   427                           
   428  0070                     ??_isr:	
   429                           ; 1 bytes @ 0x0
   430                           
   431  0070                     ?_main:	
   432                           ; 1 bytes @ 0x0
   433                           
   434                           
   435                           ; 2 bytes @ 0x0
   436  0070                     	ds	4
   437  0074                     ?_ADC:
   438  0074                     ??_spiWrite:	
   439                           ; 1 bytes @ 0x4
   440                           
   441  0074                     ?_spiInit:	
   442                           ; 1 bytes @ 0x4
   443                           
   444  0074                     ADC@justificado:	
   445                           ; 1 bytes @ 0x4
   446                           
   447  0074                     spiInit@sDataSample:	
   448                           ; 1 bytes @ 0x4
   449                           
   450  0074                     spiWrite@dat:	
   451                           ; 1 bytes @ 0x4
   452                           
   453                           
   454                           ; 1 bytes @ 0x4
   455  0074                     	ds	1
   456  0075                     ??_ADC:
   457  0075                     spiInit@sClockIdle:	
   458                           ; 1 bytes @ 0x5
   459                           
   460                           
   461                           ; 1 bytes @ 0x5
   462  0075                     	ds	1
   463  0076                     spiInit@sTransmitEdge:
   464                           
   465                           ; 1 bytes @ 0x6
   466  0076                     	ds	1
   467  0077                     ??_setup:
   468  0077                     ??_spiInit:	
   469                           ; 1 bytes @ 0x7
   470                           
   471                           
   472                           	psect	cstackBANK0
   473  0020                     __pcstackBANK0:	
   474                           ; 1 bytes @ 0x7
   475                           
   476  0020                     ADC@ANA:
   477  0020                     spiInit@sType:	
   478                           ; 1 bytes @ 0x0
   479                           
   480                           
   481                           ; 1 bytes @ 0x0
   482  0020                     	ds	1
   483  0021                     ??_main:
   484                           
   485                           ; 1 bytes @ 0x1
   486  0021                     	ds	1
   487                           
   488                           	psect	maintext
   489  0123                     __pmaintext:	
   490 ;;
   491 ;;Main: autosize = 0, tempsize = 1, incstack = 0, save=0
   492 ;;
   493 ;; *************** function _main *****************
   494 ;; Defined at:
   495 ;;		line 46 in file "PICTEMPERATURA.c"
   496 ;; Parameters:    Size  Location     Type
   497 ;;		None
   498 ;; Auto vars:     Size  Location     Type
   499 ;;		None
   500 ;; Return value:  Size  Location     Type
   501 ;;                  2   60[None  ] int 
   502 ;; Registers used:
   503 ;;		wreg, fsr0l, fsr0h, status,2, status,0, pclath, cstack
   504 ;; Tracked objects:
   505 ;;		On entry : B00/0
   506 ;;		On exit  : 0/0
   507 ;;		Unchanged: 0/0
   508 ;; Data sizes:     COMMON   BANK0   BANK1   BANK3   BANK2
   509 ;;      Params:         0       0       0       0       0
   510 ;;      Locals:         0       0       0       0       0
   511 ;;      Temps:          0       1       0       0       0
   512 ;;      Totals:         0       1       0       0       0
   513 ;;Total ram usage:        1 bytes
   514 ;; Hardware stack levels required when called:    3
   515 ;; This function calls:
   516 ;;		_ADC
   517 ;;		_setup
   518 ;;		_spiWrite
   519 ;; This function is called by:
   520 ;;		Startup code after reset
   521 ;; This function uses a non-reentrant model
   522 ;;
   523                           
   524                           
   525                           ;psect for function _main
   526  0123                     _main:
   527  0123                     l1283:	
   528                           ;incstack = 0
   529                           ; Regs used in _main: [wreg-fsr0h+status,2+status,0+pclath+cstack]
   530                           
   531                           
   532                           ;PICTEMPERATURA.c: 47: 
   533  0123  120A  118A  2169  120A  118A  	fcall	_setup
   534  0128                     l1285:
   535                           
   536                           ;PICTEMPERATURA.c: 48: void setup(void) {
   537  0128  01F4               	clrf	ADC@justificado
   538  0129  3000               	movlw	0
   539  012A  120A  118A  2016  120A  118A  	fcall	_ADC
   540  012F                     l1287:
   541                           
   542                           ;PICTEMPERATURA.c: 49:     ANSEL = 0;
   543  012F  1283               	bcf	3,5	;RP0=0, select bank0
   544  0130  1303               	bcf	3,6	;RP1=0, select bank0
   545  0131  149F               	bsf	31,1	;volatile
   546  0132                     l1289:
   547                           
   548                           ;PICTEMPERATURA.c: 50:     ANSELH = 0;
   549  0132  1186               	bcf	6,3	;volatile
   550  0133                     l1291:
   551                           
   552                           ;PICTEMPERATURA.c: 51:     TRISA = 0;
   553  0133  1206               	bcf	6,4	;volatile
   554  0134                     l1293:
   555                           
   556                           ;PICTEMPERATURA.c: 52:     PORTA = 0;
   557  0134  1286               	bcf	6,5	;volatile
   558  0135                     l1295:
   559                           
   560                           ;PICTEMPERATURA.c: 54:     PORTB = 0;
   561  0135  0877               	movf	_temperatura,w
   562  0136  120A  118A  21E0  120A  118A  	fcall	_spiWrite
   563  013B                     l1297:
   564                           
   565                           ;PICTEMPERATURA.c: 56:     PORTC = 0;
   566  013B  3071               	movlw	113
   567  013C  1283               	bcf	3,5	;RP0=0, select bank0
   568  013D  1303               	bcf	3,6	;RP1=0, select bank0
   569  013E  0208               	subwf	8,w	;volatile
   570  013F  1C03               	skipc
   571  0140  2942               	goto	u201
   572  0141  2943               	goto	u200
   573  0142                     u201:
   574  0142  2947               	goto	l1301
   575  0143                     u200:
   576  0143                     l1299:
   577                           
   578                           ;PICTEMPERATURA.c: 57:     TRISD = 0;
   579  0143  1586               	bsf	6,3	;volatile
   580                           
   581                           ;PICTEMPERATURA.c: 58:     PORTD = 0;
   582  0144  1206               	bcf	6,4	;volatile
   583                           
   584                           ;PICTEMPERATURA.c: 59:     TRISE = 0;
   585  0145  1286               	bcf	6,5	;volatile
   586                           
   587                           ;PICTEMPERATURA.c: 60:     PORTE = 0;
   588  0146  2935               	goto	l1295
   589  0147                     l1301:
   590  0147  3062               	movlw	98
   591  0148  0208               	subwf	8,w	;volatile
   592  0149  1803               	skipnc
   593  014A  294C               	goto	u211
   594  014B  294E               	goto	u210
   595  014C                     u211:
   596  014C  3001               	movlw	1
   597  014D  294F               	goto	u212
   598  014E                     u210:
   599  014E  3000               	movlw	0
   600  014F                     u212:
   601  014F  00A1               	movwf	??_main
   602  0150  3071               	movlw	113
   603  0151  0208               	subwf	8,w	;volatile
   604  0152  1C03               	skipc
   605  0153  2955               	goto	u221
   606  0154  2957               	goto	u220
   607  0155                     u221:
   608  0155  3001               	movlw	1
   609  0156  2958               	goto	u222
   610  0157                     u220:
   611  0157  3000               	movlw	0
   612  0158                     u222:
   613  0158  0521               	andwf	??_main,w
   614  0159  3800               	iorlw	0
   615  015A  1903               	skipnz
   616  015B  295D               	goto	u231
   617  015C  295E               	goto	u230
   618  015D                     u231:
   619  015D  2962               	goto	l64
   620  015E                     u230:
   621  015E                     l1303:
   622                           
   623                           ;PICTEMPERATURA.c: 61:     INTCONbits.GIE = 1;
   624  015E  1186               	bcf	6,3	;volatile
   625                           
   626                           ;PICTEMPERATURA.c: 62:     INTCONbits.PEIE = 1;
   627  015F  1606               	bsf	6,4	;volatile
   628                           
   629                           ;PICTEMPERATURA.c: 63: 
   630  0160  1286               	bcf	6,5	;volatile
   631                           
   632                           ;PICTEMPERATURA.c: 65:     temperatura=0;
   633  0161  2935               	goto	l1295
   634  0162                     l64:
   635                           
   636                           ;PICTEMPERATURA.c: 66: 
   637  0162  1186               	bcf	6,3	;volatile
   638                           
   639                           ;PICTEMPERATURA.c: 67:     INTCONbits.GIE = 1;
   640  0163  1206               	bcf	6,4	;volatile
   641                           
   642                           ;PICTEMPERATURA.c: 68:     INTCONbits.PEIE = 1;
   643  0164  1686               	bsf	6,5	;volatile
   644  0165  2935               	goto	l1295
   645  0166  120A  118A  280C   	ljmp	start
   646  0169                     __end_of_main:
   647                           
   648                           	psect	text1
   649  01E0                     __ptext1:	
   650 ;; *************** function _spiWrite *****************
   651 ;; Defined at:
   652 ;;		line 34 in file "SPI.c"
   653 ;; Parameters:    Size  Location     Type
   654 ;;  dat             1    wreg     unsigned char 
   655 ;; Auto vars:     Size  Location     Type
   656 ;;  dat             1    4[COMMON] unsigned char 
   657 ;; Return value:  Size  Location     Type
   658 ;;                  1    wreg      void 
   659 ;; Registers used:
   660 ;;		wreg
   661 ;; Tracked objects:
   662 ;;		On entry : 0/0
   663 ;;		On exit  : 0/0
   664 ;;		Unchanged: 0/0
   665 ;; Data sizes:     COMMON   BANK0   BANK1   BANK3   BANK2
   666 ;;      Params:         0       0       0       0       0
   667 ;;      Locals:         1       0       0       0       0
   668 ;;      Temps:          0       0       0       0       0
   669 ;;      Totals:         1       0       0       0       0
   670 ;;Total ram usage:        1 bytes
   671 ;; Hardware stack levels used:    1
   672 ;; Hardware stack levels required when called:    1
   673 ;; This function calls:
   674 ;;		Nothing
   675 ;; This function is called by:
   676 ;;		_main
   677 ;; This function uses a non-reentrant model
   678 ;;
   679                           
   680                           
   681                           ;psect for function _spiWrite
   682  01E0                     _spiWrite:
   683                           
   684                           ;incstack = 0
   685                           ; Regs used in _spiWrite: [wreg]
   686                           ;spiWrite@dat stored from wreg
   687  01E0  00F4               	movwf	spiWrite@dat
   688  01E1                     l895:
   689                           
   690                           ;SPI.c: 34: void spiWrite(char dat);SPI.c: 35: {;SPI.c: 36:     SSPBUF = dat;
   691  01E1  0874               	movf	spiWrite@dat,w
   692  01E2  1283               	bcf	3,5	;RP0=0, select bank0
   693  01E3  1303               	bcf	3,6	;RP1=0, select bank0
   694  01E4  0093               	movwf	19	;volatile
   695  01E5                     l155:
   696  01E5  0008               	return
   697  01E6                     __end_of_spiWrite:
   698                           
   699                           	psect	text2
   700  0169                     __ptext2:	
   701 ;; *************** function _setup *****************
   702 ;; Defined at:
   703 ;;		line 75 in file "PICTEMPERATURA.c"
   704 ;; Parameters:    Size  Location     Type
   705 ;;		None
   706 ;; Auto vars:     Size  Location     Type
   707 ;;		None
   708 ;; Return value:  Size  Location     Type
   709 ;;                  1    wreg      void 
   710 ;; Registers used:
   711 ;;		wreg, status,2, status,0, pclath, cstack
   712 ;; Tracked objects:
   713 ;;		On entry : 0/0
   714 ;;		On exit  : 0/0
   715 ;;		Unchanged: 0/0
   716 ;; Data sizes:     COMMON   BANK0   BANK1   BANK3   BANK2
   717 ;;      Params:         0       0       0       0       0
   718 ;;      Locals:         0       0       0       0       0
   719 ;;      Temps:          0       0       0       0       0
   720 ;;      Totals:         0       0       0       0       0
   721 ;;Total ram usage:        0 bytes
   722 ;; Hardware stack levels used:    1
   723 ;; Hardware stack levels required when called:    2
   724 ;; This function calls:
   725 ;;		_spiInit
   726 ;; This function is called by:
   727 ;;		_main
   728 ;; This function uses a non-reentrant model
   729 ;;
   730                           
   731                           
   732                           ;psect for function _setup
   733  0169                     _setup:
   734  0169                     l1153:	
   735                           ;incstack = 0
   736                           ; Regs used in _setup: [wreg+status,2+status,0+pclath+cstack]
   737                           
   738  0169  1683               	bsf	3,5	;RP0=1, select bank3
   739  016A  1703               	bsf	3,6	;RP1=1, select bank3
   740  016B  0188               	clrf	8	;volatile
   741  016C  0189               	clrf	9	;volatile
   742  016D  1683               	bsf	3,5	;RP0=1, select bank1
   743  016E  1303               	bcf	3,6	;RP1=0, select bank1
   744  016F  0185               	clrf	5	;volatile
   745  0170  1283               	bcf	3,5	;RP0=0, select bank0
   746  0171  1303               	bcf	3,6	;RP1=0, select bank0
   747  0172  0185               	clrf	5	;volatile
   748  0173                     l1155:
   749  0173  3003               	movlw	3
   750  0174  1683               	bsf	3,5	;RP0=1, select bank1
   751  0175  1303               	bcf	3,6	;RP1=0, select bank1
   752  0176  0086               	movwf	6	;volatile
   753  0177                     l1157:
   754  0177  1283               	bcf	3,5	;RP0=0, select bank0
   755  0178  1303               	bcf	3,6	;RP1=0, select bank0
   756  0179  0186               	clrf	6	;volatile
   757  017A                     l1159:
   758  017A  1683               	bsf	3,5	;RP0=1, select bank1
   759  017B  1303               	bcf	3,6	;RP1=0, select bank1
   760  017C  0187               	clrf	7	;volatile
   761  017D                     l1161:
   762  017D  1283               	bcf	3,5	;RP0=0, select bank0
   763  017E  1303               	bcf	3,6	;RP1=0, select bank0
   764  017F  0187               	clrf	7	;volatile
   765  0180                     l1163:
   766  0180  1683               	bsf	3,5	;RP0=1, select bank1
   767  0181  1303               	bcf	3,6	;RP1=0, select bank1
   768  0182  0188               	clrf	8	;volatile
   769  0183                     l1165:
   770  0183  1283               	bcf	3,5	;RP0=0, select bank0
   771  0184  1303               	bcf	3,6	;RP1=0, select bank0
   772  0185  0188               	clrf	8	;volatile
   773  0186                     l1167:
   774  0186  1683               	bsf	3,5	;RP0=1, select bank1
   775  0187  1303               	bcf	3,6	;RP1=0, select bank1
   776  0188  0189               	clrf	9	;volatile
   777  0189                     l1169:
   778  0189  1283               	bcf	3,5	;RP0=0, select bank0
   779  018A  1303               	bcf	3,6	;RP1=0, select bank0
   780  018B  0189               	clrf	9	;volatile
   781  018C                     l1171:
   782  018C  178B               	bsf	11,7	;volatile
   783  018D                     l1173:
   784  018D  170B               	bsf	11,6	;volatile
   785  018E                     l1175:
   786  018E  01F9               	clrf	_contador
   787  018F                     l1177:
   788  018F  01F7               	clrf	_temperatura
   789  0190  01F8               	clrf	_temperatura+1
   790  0191                     l1179:
   791  0191  178B               	bsf	11,7	;volatile
   792  0192                     l1181:
   793  0192  170B               	bsf	11,6	;volatile
   794  0193                     l1183:
   795  0193  1683               	bsf	3,5	;RP0=1, select bank1
   796  0194  1303               	bcf	3,6	;RP1=0, select bank1
   797  0195  1685               	bsf	5,5	;volatile
   798  0196                     l1185:
   799  0196  01F4               	clrf	spiInit@sDataSample
   800  0197  01F5               	clrf	spiInit@sClockIdle
   801  0198  01F6               	clrf	spiInit@sTransmitEdge
   802  0199  3024               	movlw	36
   803  019A  120A  118A  21C2  120A  118A  	fcall	_spiInit
   804  019F                     l71:
   805  019F  0008               	return
   806  01A0                     __end_of_setup:
   807                           
   808                           	psect	text3
   809  01C2                     __ptext3:	
   810 ;; *************** function _spiInit *****************
   811 ;; Defined at:
   812 ;;		line 12 in file "SPI.c"
   813 ;; Parameters:    Size  Location     Type
   814 ;;  sType           1    wreg     enum E1264
   815 ;;  sDataSample     1    4[COMMON] enum E1272
   816 ;;  sClockIdle      1    5[COMMON] enum E1276
   817 ;;  sTransmitEdg    1    6[COMMON] enum E1280
   818 ;; Auto vars:     Size  Location     Type
   819 ;;  sType           1    0[BANK0 ] enum E1264
   820 ;; Return value:  Size  Location     Type
   821 ;;                  1    wreg      void 
   822 ;; Registers used:
   823 ;;		wreg, status,2, status,0
   824 ;; Tracked objects:
   825 ;;		On entry : 0/0
   826 ;;		On exit  : 0/0
   827 ;;		Unchanged: 0/0
   828 ;; Data sizes:     COMMON   BANK0   BANK1   BANK3   BANK2
   829 ;;      Params:         3       0       0       0       0
   830 ;;      Locals:         0       1       0       0       0
   831 ;;      Temps:          0       0       0       0       0
   832 ;;      Totals:         3       1       0       0       0
   833 ;;Total ram usage:        4 bytes
   834 ;; Hardware stack levels used:    1
   835 ;; Hardware stack levels required when called:    1
   836 ;; This function calls:
   837 ;;		Nothing
   838 ;; This function is called by:
   839 ;;		_setup
   840 ;; This function uses a non-reentrant model
   841 ;;
   842                           
   843                           
   844                           ;psect for function _spiInit
   845  01C2                     _spiInit:
   846                           
   847                           ;incstack = 0
   848                           ; Regs used in _spiInit: [wreg+status,2+status,0]
   849                           ;spiInit@sType stored from wreg
   850  01C2  1283               	bcf	3,5	;RP0=0, select bank0
   851  01C3  1303               	bcf	3,6	;RP1=0, select bank0
   852  01C4  00A0               	movwf	spiInit@sType
   853  01C5                     l1143:
   854                           
   855                           ;SPI.c: 12: void spiInit(Spi_Type sType, Spi_Data_Sample sDataSample, Spi_Clock_Idle sCl
      +                          ockIdle, Spi_Transmit_Edge sTransmitEdge);SPI.c: 13: {;SPI.c: 14:     TRISC5 = 0;
   856  01C5  1683               	bsf	3,5	;RP0=1, select bank1
   857  01C6  1303               	bcf	3,6	;RP1=0, select bank1
   858  01C7  1287               	bcf	7,5	;volatile
   859                           
   860                           ;SPI.c: 15:     if(sType & 0b00000100)
   861  01C8  1283               	bcf	3,5	;RP0=0, select bank0
   862  01C9  1303               	bcf	3,6	;RP1=0, select bank0
   863  01CA  1D20               	btfss	spiInit@sType,2
   864  01CB  29CD               	goto	u171
   865  01CC  29CE               	goto	u170
   866  01CD                     u171:
   867  01CD  29D4               	goto	l1149
   868  01CE                     u170:
   869  01CE                     l1145:
   870                           
   871                           ;SPI.c: 16:     {;SPI.c: 17:         SSPSTAT = sTransmitEdge;
   872  01CE  0876               	movf	spiInit@sTransmitEdge,w
   873  01CF  1683               	bsf	3,5	;RP0=1, select bank1
   874  01D0  1303               	bcf	3,6	;RP1=0, select bank1
   875  01D1  0094               	movwf	20	;volatile
   876  01D2                     l1147:
   877                           
   878                           ;SPI.c: 18:         TRISC3 = 1;
   879  01D2  1587               	bsf	7,3	;volatile
   880                           
   881                           ;SPI.c: 19:     }
   882  01D3  29DA               	goto	l145
   883  01D4                     l1149:
   884                           
   885                           ;SPI.c: 21:     {;SPI.c: 22:         SSPSTAT = sDataSample | sTransmitEdge;
   886  01D4  0874               	movf	spiInit@sDataSample,w
   887  01D5  0476               	iorwf	spiInit@sTransmitEdge,w
   888  01D6  1683               	bsf	3,5	;RP0=1, select bank1
   889  01D7  1303               	bcf	3,6	;RP1=0, select bank1
   890  01D8  0094               	movwf	20	;volatile
   891  01D9                     l1151:
   892                           
   893                           ;SPI.c: 23:         TRISC3 = 0;
   894  01D9  1187               	bcf	7,3	;volatile
   895  01DA                     l145:	
   896                           ;SPI.c: 24:     }
   897                           
   898                           
   899                           ;SPI.c: 26:     SSPCON = sType | sClockIdle;
   900  01DA  1283               	bcf	3,5	;RP0=0, select bank0
   901  01DB  1303               	bcf	3,6	;RP1=0, select bank0
   902  01DC  0820               	movf	spiInit@sType,w
   903  01DD  0475               	iorwf	spiInit@sClockIdle,w
   904  01DE  0094               	movwf	20	;volatile
   905  01DF                     l146:
   906  01DF  0008               	return
   907  01E0                     __end_of_spiInit:
   908                           
   909                           	psect	text4
   910  0016                     __ptext4:	
   911 ;; *************** function _ADC *****************
   912 ;; Defined at:
   913 ;;		line 4 in file "ADC.c"
   914 ;; Parameters:    Size  Location     Type
   915 ;;  ANA             1    wreg     unsigned char 
   916 ;;  justificado     1    4[COMMON] unsigned char 
   917 ;; Auto vars:     Size  Location     Type
   918 ;;  ANA             1    0[BANK0 ] unsigned char 
   919 ;; Return value:  Size  Location     Type
   920 ;;                  1    wreg      void 
   921 ;; Registers used:
   922 ;;		wreg, fsr0l, fsr0h, status,2, status,0
   923 ;; Tracked objects:
   924 ;;		On entry : 0/0
   925 ;;		On exit  : 0/0
   926 ;;		Unchanged: 0/0
   927 ;; Data sizes:     COMMON   BANK0   BANK1   BANK3   BANK2
   928 ;;      Params:         1       0       0       0       0
   929 ;;      Locals:         0       1       0       0       0
   930 ;;      Temps:          2       0       0       0       0
   931 ;;      Totals:         3       1       0       0       0
   932 ;;Total ram usage:        4 bytes
   933 ;; Hardware stack levels used:    1
   934 ;; Hardware stack levels required when called:    1
   935 ;; This function calls:
   936 ;;		Nothing
   937 ;; This function is called by:
   938 ;;		_main
   939 ;; This function uses a non-reentrant model
   940 ;;
   941                           
   942                           
   943                           ;psect for function _ADC
   944  0016                     _ADC:
   945                           
   946                           ;incstack = 0
   947                           ; Regs used in _ADC: [wreg-fsr0h+status,2+status,0]
   948                           ;ADC@ANA stored from wreg
   949  0016  1283               	bcf	3,5	;RP0=0, select bank0
   950  0017  1303               	bcf	3,6	;RP1=0, select bank0
   951  0018  00A0               	movwf	ADC@ANA
   952  0019                     l1187:
   953                           
   954                           ;ADC.c: 7:     ADCON0bits.ADON = 1;
   955  0019  141F               	bsf	31,0	;volatile
   956  001A                     l1189:
   957                           
   958                           ;ADC.c: 8:     ADCON0bits.ADCS = 0b10;
   959  001A  081F               	movf	31,w	;volatile
   960  001B  393F               	andlw	-193
   961  001C  3880               	iorlw	128
   962  001D  009F               	movwf	31	;volatile
   963  001E                     l1191:
   964                           
   965                           ;ADC.c: 10:     TRISAbits.TRISA2 = 1;
   966  001E  1683               	bsf	3,5	;RP0=1, select bank1
   967  001F  1303               	bcf	3,6	;RP1=0, select bank1
   968  0020  1505               	bsf	5,2	;volatile
   969  0021                     l1193:
   970                           
   971                           ;ADC.c: 11:     TRISAbits.TRISA3 = 1;
   972  0021  1585               	bsf	5,3	;volatile
   973  0022                     l1195:
   974                           
   975                           ;ADC.c: 12:     ADCON1bits.VCFG1 = 1;
   976  0022  169F               	bsf	31,5	;volatile
   977  0023                     l1197:
   978                           
   979                           ;ADC.c: 13:     ADCON1bits.VCFG0 = 1;
   980  0023  161F               	bsf	31,4	;volatile
   981  0024                     l1199:
   982                           
   983                           ;ADC.c: 15:     PIE1bits.ADIE = 1;
   984  0024  170C               	bsf	12,6	;volatile
   985  0025                     l1201:
   986                           
   987                           ;ADC.c: 16:     PIR1bits.ADIF = 0;
   988  0025  1283               	bcf	3,5	;RP0=0, select bank0
   989  0026  1303               	bcf	3,6	;RP1=0, select bank0
   990  0027  130C               	bcf	12,6	;volatile
   991                           
   992                           ;ADC.c: 18:     if (justificado == 0) {
   993  0028  0874               	movf	ADC@justificado,w
   994  0029  1D03               	btfss	3,2
   995  002A  282C               	goto	u181
   996  002B  282D               	goto	u180
   997  002C                     u181:
   998  002C  291A               	goto	l1239
   999  002D                     u180:
  1000  002D                     l1203:
  1001                           
  1002                           ;ADC.c: 19:         ADCON1bits.ADFM = 0;
  1003  002D  1683               	bsf	3,5	;RP0=1, select bank1
  1004  002E  1303               	bcf	3,6	;RP1=0, select bank1
  1005  002F  139F               	bcf	31,7	;volatile
  1006                           
  1007                           ;ADC.c: 20:         switch (ANA) {
  1008  0030  28E4               	goto	l1237
  1009  0031                     l94:	
  1010                           ;ADC.c: 21:             case 0:
  1011                           
  1012                           
  1013                           ;ADC.c: 22:                 TRISAbits.TRISA0 = 1;
  1014  0031  1683               	bsf	3,5	;RP0=1, select bank1
  1015  0032  1303               	bcf	3,6	;RP1=0, select bank1
  1016  0033  1405               	bsf	5,0	;volatile
  1017                           
  1018                           ;ADC.c: 23:                 ANSELbits.ANS0 = 1;
  1019  0034  1683               	bsf	3,5	;RP0=1, select bank3
  1020  0035  1703               	bsf	3,6	;RP1=1, select bank3
  1021  0036  1408               	bsf	8,0	;volatile
  1022  0037                     l1205:
  1023                           
  1024                           ;ADC.c: 24:                 ADCON0bits.CHS = 0b0000;
  1025  0037  30C3               	movlw	-61
  1026  0038  1283               	bcf	3,5	;RP0=0, select bank0
  1027  0039  1303               	bcf	3,6	;RP1=0, select bank0
  1028  003A  059F               	andwf	31,f	;volatile
  1029                           
  1030                           ;ADC.c: 25:                 break;
  1031  003B  2922               	goto	l129
  1032  003C                     l96:	
  1033                           ;ADC.c: 26:             case 1:
  1034                           
  1035                           
  1036                           ;ADC.c: 27:                 TRISAbits.TRISA1 = 1;
  1037  003C  1683               	bsf	3,5	;RP0=1, select bank1
  1038  003D  1303               	bcf	3,6	;RP1=0, select bank1
  1039  003E  1485               	bsf	5,1	;volatile
  1040                           
  1041                           ;ADC.c: 28:                 ANSELbits.ANS1 = 1;
  1042  003F  1683               	bsf	3,5	;RP0=1, select bank3
  1043  0040  1703               	bsf	3,6	;RP1=1, select bank3
  1044  0041  1488               	bsf	8,1	;volatile
  1045  0042                     l1207:
  1046                           
  1047                           ;ADC.c: 29:                 ADCON0bits.CHS = 0b0001;
  1048  0042  1283               	bcf	3,5	;RP0=0, select bank0
  1049  0043  1303               	bcf	3,6	;RP1=0, select bank0
  1050  0044  081F               	movf	31,w	;volatile
  1051  0045  39C3               	andlw	-61
  1052  0046  3804               	iorlw	4
  1053  0047  009F               	movwf	31	;volatile
  1054                           
  1055                           ;ADC.c: 30:                 break;
  1056  0048  2922               	goto	l129
  1057  0049                     l97:	
  1058                           ;ADC.c: 31:             case 2:
  1059                           
  1060                           
  1061                           ;ADC.c: 32:                 TRISAbits.TRISA2 = 1;
  1062  0049  1683               	bsf	3,5	;RP0=1, select bank1
  1063  004A  1303               	bcf	3,6	;RP1=0, select bank1
  1064  004B  1505               	bsf	5,2	;volatile
  1065                           
  1066                           ;ADC.c: 33:                 ANSELbits.ANS2 = 1;
  1067  004C  1683               	bsf	3,5	;RP0=1, select bank3
  1068  004D  1703               	bsf	3,6	;RP1=1, select bank3
  1069  004E  1508               	bsf	8,2	;volatile
  1070  004F                     l1209:
  1071                           
  1072                           ;ADC.c: 34:                 ADCON0bits.CHS = 0b0010;
  1073  004F  1283               	bcf	3,5	;RP0=0, select bank0
  1074  0050  1303               	bcf	3,6	;RP1=0, select bank0
  1075  0051  081F               	movf	31,w	;volatile
  1076  0052  39C3               	andlw	-61
  1077  0053  3808               	iorlw	8
  1078  0054  009F               	movwf	31	;volatile
  1079                           
  1080                           ;ADC.c: 35:                 break;
  1081  0055  2922               	goto	l129
  1082  0056                     l98:	
  1083                           ;ADC.c: 36:             case 3:
  1084                           
  1085                           
  1086                           ;ADC.c: 37:                 TRISAbits.TRISA3 = 1;
  1087  0056  1683               	bsf	3,5	;RP0=1, select bank1
  1088  0057  1303               	bcf	3,6	;RP1=0, select bank1
  1089  0058  1585               	bsf	5,3	;volatile
  1090                           
  1091                           ;ADC.c: 38:                 ANSELbits.ANS3 = 1;
  1092  0059  1683               	bsf	3,5	;RP0=1, select bank3
  1093  005A  1703               	bsf	3,6	;RP1=1, select bank3
  1094  005B  1588               	bsf	8,3	;volatile
  1095  005C                     l1211:
  1096                           
  1097                           ;ADC.c: 39:                 ADCON0bits.CHS = 0b0011;
  1098  005C  1283               	bcf	3,5	;RP0=0, select bank0
  1099  005D  1303               	bcf	3,6	;RP1=0, select bank0
  1100  005E  081F               	movf	31,w	;volatile
  1101  005F  39C3               	andlw	-61
  1102  0060  380C               	iorlw	12
  1103  0061  009F               	movwf	31	;volatile
  1104                           
  1105                           ;ADC.c: 40:                 break;
  1106  0062  2922               	goto	l129
  1107  0063                     l99:	
  1108                           ;ADC.c: 41:             case 4:
  1109                           
  1110                           
  1111                           ;ADC.c: 42:                 TRISAbits.TRISA5 = 1;
  1112  0063  1683               	bsf	3,5	;RP0=1, select bank1
  1113  0064  1303               	bcf	3,6	;RP1=0, select bank1
  1114  0065  1685               	bsf	5,5	;volatile
  1115                           
  1116                           ;ADC.c: 43:                 ANSELbits.ANS4 = 1;
  1117  0066  1683               	bsf	3,5	;RP0=1, select bank3
  1118  0067  1703               	bsf	3,6	;RP1=1, select bank3
  1119  0068  1608               	bsf	8,4	;volatile
  1120  0069                     l1213:
  1121                           
  1122                           ;ADC.c: 44:                 ADCON0bits.CHS = 0b0100;
  1123  0069  1283               	bcf	3,5	;RP0=0, select bank0
  1124  006A  1303               	bcf	3,6	;RP1=0, select bank0
  1125  006B  081F               	movf	31,w	;volatile
  1126  006C  39C3               	andlw	-61
  1127  006D  3810               	iorlw	16
  1128  006E  009F               	movwf	31	;volatile
  1129                           
  1130                           ;ADC.c: 45:                 break;
  1131  006F  2922               	goto	l129
  1132  0070                     l100:	
  1133                           ;ADC.c: 46:             case 5:
  1134                           
  1135                           
  1136                           ;ADC.c: 47:                 TRISEbits.TRISE0 = 1;
  1137  0070  1683               	bsf	3,5	;RP0=1, select bank1
  1138  0071  1303               	bcf	3,6	;RP1=0, select bank1
  1139  0072  1409               	bsf	9,0	;volatile
  1140                           
  1141                           ;ADC.c: 48:                 ANSELbits.ANS5 = 1;
  1142  0073  1683               	bsf	3,5	;RP0=1, select bank3
  1143  0074  1703               	bsf	3,6	;RP1=1, select bank3
  1144  0075  1688               	bsf	8,5	;volatile
  1145  0076                     l1215:
  1146                           
  1147                           ;ADC.c: 49:                 ADCON0bits.CHS = 0b0101;
  1148  0076  1283               	bcf	3,5	;RP0=0, select bank0
  1149  0077  1303               	bcf	3,6	;RP1=0, select bank0
  1150  0078  081F               	movf	31,w	;volatile
  1151  0079  39C3               	andlw	-61
  1152  007A  3814               	iorlw	20
  1153  007B  009F               	movwf	31	;volatile
  1154                           
  1155                           ;ADC.c: 50:                 break;
  1156  007C  2922               	goto	l129
  1157  007D                     l101:	
  1158                           ;ADC.c: 51:             case 6:
  1159                           
  1160                           
  1161                           ;ADC.c: 52:                 TRISEbits.TRISE1 = 1;
  1162  007D  1683               	bsf	3,5	;RP0=1, select bank1
  1163  007E  1303               	bcf	3,6	;RP1=0, select bank1
  1164  007F  1489               	bsf	9,1	;volatile
  1165                           
  1166                           ;ADC.c: 53:                 ANSELbits.ANS6 = 1;
  1167  0080  1683               	bsf	3,5	;RP0=1, select bank3
  1168  0081  1703               	bsf	3,6	;RP1=1, select bank3
  1169  0082  1708               	bsf	8,6	;volatile
  1170  0083                     l1217:
  1171                           
  1172                           ;ADC.c: 54:                 ADCON0bits.CHS = 0b0110;
  1173  0083  1283               	bcf	3,5	;RP0=0, select bank0
  1174  0084  1303               	bcf	3,6	;RP1=0, select bank0
  1175  0085  081F               	movf	31,w	;volatile
  1176  0086  39C3               	andlw	-61
  1177  0087  3818               	iorlw	24
  1178  0088  009F               	movwf	31	;volatile
  1179  0089                     l1219:
  1180                           
  1181                           ;ADC.c: 56:                 TRISEbits.TRISE2 = 1;
  1182  0089  1683               	bsf	3,5	;RP0=1, select bank1
  1183  008A  1303               	bcf	3,6	;RP1=0, select bank1
  1184  008B  1509               	bsf	9,2	;volatile
  1185  008C                     l1221:
  1186                           
  1187                           ;ADC.c: 57:                 ANSELbits.ANS7 = 1;
  1188  008C  1683               	bsf	3,5	;RP0=1, select bank3
  1189  008D  1703               	bsf	3,6	;RP1=1, select bank3
  1190  008E  1788               	bsf	8,7	;volatile
  1191                           
  1192                           ;ADC.c: 58:                 ADCON0bits.CHS = 0b0111;
  1193  008F  1283               	bcf	3,5	;RP0=0, select bank0
  1194  0090  1303               	bcf	3,6	;RP1=0, select bank0
  1195  0091  081F               	movf	31,w	;volatile
  1196  0092  39C3               	andlw	-61
  1197  0093  381C               	iorlw	28
  1198  0094  009F               	movwf	31	;volatile
  1199                           
  1200                           ;ADC.c: 59:                 break;
  1201  0095  2922               	goto	l129
  1202  0096                     l103:	
  1203                           ;ADC.c: 60:             case 8:
  1204                           
  1205                           
  1206                           ;ADC.c: 61:                 TRISBbits.TRISB2 = 1;
  1207  0096  1683               	bsf	3,5	;RP0=1, select bank1
  1208  0097  1303               	bcf	3,6	;RP1=0, select bank1
  1209  0098  1506               	bsf	6,2	;volatile
  1210                           
  1211                           ;ADC.c: 62:                 ANSELHbits.ANS8 = 1;
  1212  0099  1683               	bsf	3,5	;RP0=1, select bank3
  1213  009A  1703               	bsf	3,6	;RP1=1, select bank3
  1214  009B  1409               	bsf	9,0	;volatile
  1215  009C                     l1223:
  1216                           
  1217                           ;ADC.c: 63:                 ADCON0bits.CHS = 0b1000;
  1218  009C  1283               	bcf	3,5	;RP0=0, select bank0
  1219  009D  1303               	bcf	3,6	;RP1=0, select bank0
  1220  009E  081F               	movf	31,w	;volatile
  1221  009F  39C3               	andlw	-61
  1222  00A0  3820               	iorlw	32
  1223  00A1  009F               	movwf	31	;volatile
  1224                           
  1225                           ;ADC.c: 64:                 break;
  1226  00A2  2922               	goto	l129
  1227  00A3                     l104:	
  1228                           ;ADC.c: 65:             case 9:
  1229                           
  1230                           
  1231                           ;ADC.c: 66:                 TRISBbits.TRISB3 = 1;
  1232  00A3  1683               	bsf	3,5	;RP0=1, select bank1
  1233  00A4  1303               	bcf	3,6	;RP1=0, select bank1
  1234  00A5  1586               	bsf	6,3	;volatile
  1235                           
  1236                           ;ADC.c: 67:                 ANSELHbits.ANS9 = 1;
  1237  00A6  1683               	bsf	3,5	;RP0=1, select bank3
  1238  00A7  1703               	bsf	3,6	;RP1=1, select bank3
  1239  00A8  1489               	bsf	9,1	;volatile
  1240  00A9                     l1225:
  1241                           
  1242                           ;ADC.c: 68:                 ADCON0bits.CHS = 0b1001;
  1243  00A9  1283               	bcf	3,5	;RP0=0, select bank0
  1244  00AA  1303               	bcf	3,6	;RP1=0, select bank0
  1245  00AB  081F               	movf	31,w	;volatile
  1246  00AC  39C3               	andlw	-61
  1247  00AD  3824               	iorlw	36
  1248  00AE  009F               	movwf	31	;volatile
  1249                           
  1250                           ;ADC.c: 69:                 break;
  1251  00AF  2922               	goto	l129
  1252  00B0                     l105:	
  1253                           ;ADC.c: 70:             case 10:
  1254                           
  1255                           
  1256                           ;ADC.c: 71:                 TRISBbits.TRISB1 = 1;
  1257  00B0  1683               	bsf	3,5	;RP0=1, select bank1
  1258  00B1  1303               	bcf	3,6	;RP1=0, select bank1
  1259  00B2  1486               	bsf	6,1	;volatile
  1260                           
  1261                           ;ADC.c: 72:                 ANSELHbits.ANS10 = 1;
  1262  00B3  1683               	bsf	3,5	;RP0=1, select bank3
  1263  00B4  1703               	bsf	3,6	;RP1=1, select bank3
  1264  00B5  1509               	bsf	9,2	;volatile
  1265  00B6                     l1227:
  1266                           
  1267                           ;ADC.c: 73:                 ADCON0bits.CHS = 0b1010;
  1268  00B6  1283               	bcf	3,5	;RP0=0, select bank0
  1269  00B7  1303               	bcf	3,6	;RP1=0, select bank0
  1270  00B8  081F               	movf	31,w	;volatile
  1271  00B9  39C3               	andlw	-61
  1272  00BA  3828               	iorlw	40
  1273  00BB  009F               	movwf	31	;volatile
  1274                           
  1275                           ;ADC.c: 74:                 break;
  1276  00BC  2922               	goto	l129
  1277  00BD                     l106:	
  1278                           ;ADC.c: 75:             case 11:
  1279                           
  1280                           
  1281                           ;ADC.c: 76:                 TRISBbits.TRISB4 = 1;
  1282  00BD  1683               	bsf	3,5	;RP0=1, select bank1
  1283  00BE  1303               	bcf	3,6	;RP1=0, select bank1
  1284  00BF  1606               	bsf	6,4	;volatile
  1285                           
  1286                           ;ADC.c: 77:                 ANSELHbits.ANS11 = 1;
  1287  00C0  1683               	bsf	3,5	;RP0=1, select bank3
  1288  00C1  1703               	bsf	3,6	;RP1=1, select bank3
  1289  00C2  1589               	bsf	9,3	;volatile
  1290  00C3                     l1229:
  1291                           
  1292                           ;ADC.c: 78:                 ADCON0bits.CHS = 0b1011;
  1293  00C3  1283               	bcf	3,5	;RP0=0, select bank0
  1294  00C4  1303               	bcf	3,6	;RP1=0, select bank0
  1295  00C5  081F               	movf	31,w	;volatile
  1296  00C6  39C3               	andlw	-61
  1297  00C7  382C               	iorlw	44
  1298  00C8  009F               	movwf	31	;volatile
  1299                           
  1300                           ;ADC.c: 79:                 break;
  1301  00C9  2922               	goto	l129
  1302  00CA                     l107:	
  1303                           ;ADC.c: 80:             case 12:
  1304                           
  1305                           
  1306                           ;ADC.c: 81:                 TRISBbits.TRISB0 = 1;
  1307  00CA  1683               	bsf	3,5	;RP0=1, select bank1
  1308  00CB  1303               	bcf	3,6	;RP1=0, select bank1
  1309  00CC  1406               	bsf	6,0	;volatile
  1310                           
  1311                           ;ADC.c: 82:                 ANSELHbits.ANS12 = 1;
  1312  00CD  1683               	bsf	3,5	;RP0=1, select bank3
  1313  00CE  1703               	bsf	3,6	;RP1=1, select bank3
  1314  00CF  1609               	bsf	9,4	;volatile
  1315  00D0                     l1231:
  1316                           
  1317                           ;ADC.c: 83:                 ADCON0bits.CHS = 0b1100;
  1318  00D0  1283               	bcf	3,5	;RP0=0, select bank0
  1319  00D1  1303               	bcf	3,6	;RP1=0, select bank0
  1320  00D2  081F               	movf	31,w	;volatile
  1321  00D3  39C3               	andlw	-61
  1322  00D4  3830               	iorlw	48
  1323  00D5  009F               	movwf	31	;volatile
  1324                           
  1325                           ;ADC.c: 84:                 break;
  1326  00D6  2922               	goto	l129
  1327  00D7                     l108:	
  1328                           ;ADC.c: 85:             case 13:
  1329                           
  1330                           
  1331                           ;ADC.c: 86:                 TRISBbits.TRISB5 = 1;
  1332  00D7  1683               	bsf	3,5	;RP0=1, select bank1
  1333  00D8  1303               	bcf	3,6	;RP1=0, select bank1
  1334  00D9  1686               	bsf	6,5	;volatile
  1335                           
  1336                           ;ADC.c: 87:                 ANSELHbits.ANS13 = 1;
  1337  00DA  1683               	bsf	3,5	;RP0=1, select bank3
  1338  00DB  1703               	bsf	3,6	;RP1=1, select bank3
  1339  00DC  1689               	bsf	9,5	;volatile
  1340  00DD                     l1233:
  1341                           
  1342                           ;ADC.c: 88:                 ADCON0bits.CHS = 0b1101;
  1343  00DD  1283               	bcf	3,5	;RP0=0, select bank0
  1344  00DE  1303               	bcf	3,6	;RP1=0, select bank0
  1345  00DF  081F               	movf	31,w	;volatile
  1346  00E0  39C3               	andlw	-61
  1347  00E1  3834               	iorlw	52
  1348  00E2  009F               	movwf	31	;volatile
  1349                           
  1350                           ;ADC.c: 89:                 break;
  1351  00E3  2922               	goto	l129
  1352  00E4                     l1237:
  1353  00E4  1283               	bcf	3,5	;RP0=0, select bank0
  1354  00E5  1303               	bcf	3,6	;RP1=0, select bank0
  1355  00E6  0820               	movf	ADC@ANA,w
  1356  00E7  00F5               	movwf	??_ADC
  1357  00E8  01F6               	clrf	??_ADC+1
  1358                           
  1359                           ; Switch on 2 bytes has been partitioned into a top level switch of size 1, and 1 sub-sw
      +                          itches
  1360                           ; Switch size 1, requested type "simple"
  1361                           ; Number of cases is 1, Range of values is 0 to 0
  1362                           ; switch strategies available:
  1363                           ; Name         Instructions Cycles
  1364                           ; simple_byte            4     3 (average)
  1365                           ; direct_byte           11     8 (fixed)
  1366                           ; jumptable            260     6 (fixed)
  1367                           ;	Chosen strategy is simple_byte
  1368  00E9  0876               	movf	??_ADC+1,w
  1369  00EA  3A00               	xorlw	0	; case 0
  1370  00EB  1903               	skipnz
  1371  00EC  28EE               	goto	l1325
  1372  00ED  2922               	goto	l129
  1373  00EE                     l1325:
  1374                           
  1375                           ; Switch size 1, requested type "simple"
  1376                           ; Number of cases is 14, Range of values is 0 to 13
  1377                           ; switch strategies available:
  1378                           ; Name         Instructions Cycles
  1379                           ; simple_byte           43    22 (average)
  1380                           ; direct_byte           50     8 (fixed)
  1381                           ; jumptable            260     6 (fixed)
  1382                           ;	Chosen strategy is simple_byte
  1383  00EE  0875               	movf	??_ADC,w
  1384  00EF  3A00               	xorlw	0	; case 0
  1385  00F0  1903               	skipnz
  1386  00F1  2831               	goto	l94
  1387  00F2  3A01               	xorlw	1	; case 1
  1388  00F3  1903               	skipnz
  1389  00F4  283C               	goto	l96
  1390  00F5  3A03               	xorlw	3	; case 2
  1391  00F6  1903               	skipnz
  1392  00F7  2849               	goto	l97
  1393  00F8  3A01               	xorlw	1	; case 3
  1394  00F9  1903               	skipnz
  1395  00FA  2856               	goto	l98
  1396  00FB  3A07               	xorlw	7	; case 4
  1397  00FC  1903               	skipnz
  1398  00FD  2863               	goto	l99
  1399  00FE  3A01               	xorlw	1	; case 5
  1400  00FF  1903               	skipnz
  1401  0100  2870               	goto	l100
  1402  0101  3A03               	xorlw	3	; case 6
  1403  0102  1903               	skipnz
  1404  0103  287D               	goto	l101
  1405  0104  3A01               	xorlw	1	; case 7
  1406  0105  1903               	skipnz
  1407  0106  2889               	goto	l1219
  1408  0107  3A0F               	xorlw	15	; case 8
  1409  0108  1903               	skipnz
  1410  0109  2896               	goto	l103
  1411  010A  3A01               	xorlw	1	; case 9
  1412  010B  1903               	skipnz
  1413  010C  28A3               	goto	l104
  1414  010D  3A03               	xorlw	3	; case 10
  1415  010E  1903               	skipnz
  1416  010F  28B0               	goto	l105
  1417  0110  3A01               	xorlw	1	; case 11
  1418  0111  1903               	skipnz
  1419  0112  28BD               	goto	l106
  1420  0113  3A07               	xorlw	7	; case 12
  1421  0114  1903               	skipnz
  1422  0115  28CA               	goto	l107
  1423  0116  3A01               	xorlw	1	; case 13
  1424  0117  1903               	skipnz
  1425  0118  28D7               	goto	l108
  1426  0119  2922               	goto	l129
  1427  011A                     l1239:
  1428  011A  0374               	decf	ADC@justificado,w
  1429  011B  1D03               	btfss	3,2
  1430  011C  291E               	goto	u191
  1431  011D  291F               	goto	u190
  1432  011E                     u191:
  1433  011E  2922               	goto	l129
  1434  011F                     u190:
  1435  011F                     l1241:
  1436                           
  1437                           ;ADC.c: 94:         ADCON1bits.ADFM = 1;
  1438  011F  1683               	bsf	3,5	;RP0=1, select bank1
  1439  0120  1303               	bcf	3,6	;RP1=0, select bank1
  1440  0121  179F               	bsf	31,7	;volatile
  1441  0122                     l129:	
  1442                           ;ADC.c: 95:         switch (ANA) {
  1443                           
  1444  0122  0008               	return
  1445  0123                     __end_of_ADC:
  1446                           
  1447                           	psect	text5
  1448  01A0                     __ptext5:	
  1449 ;; *************** function _isr *****************
  1450 ;; Defined at:
  1451 ;;		line 35 in file "PICTEMPERATURA.c"
  1452 ;; Parameters:    Size  Location     Type
  1453 ;;		None
  1454 ;; Auto vars:     Size  Location     Type
  1455 ;;		None
  1456 ;; Return value:  Size  Location     Type
  1457 ;;                  1    wreg      void 
  1458 ;; Registers used:
  1459 ;;		wreg
  1460 ;; Tracked objects:
  1461 ;;		On entry : 0/0
  1462 ;;		On exit  : 0/0
  1463 ;;		Unchanged: 0/0
  1464 ;; Data sizes:     COMMON   BANK0   BANK1   BANK3   BANK2
  1465 ;;      Params:         0       0       0       0       0
  1466 ;;      Locals:         0       0       0       0       0
  1467 ;;      Temps:          4       0       0       0       0
  1468 ;;      Totals:         4       0       0       0       0
  1469 ;;Total ram usage:        4 bytes
  1470 ;; Hardware stack levels used:    1
  1471 ;; This function calls:
  1472 ;;		Nothing
  1473 ;; This function is called by:
  1474 ;;		Interrupt level 1
  1475 ;; This function uses a non-reentrant model
  1476 ;;
  1477                           
  1478                           
  1479                           ;psect for function _isr
  1480  01A0                     _isr:
  1481  01A0                     i1l899:
  1482                           
  1483                           ;PICTEMPERATURA.c: 37: 
  1484  01A0  1283               	bcf	3,5	;RP0=0, select bank0
  1485  01A1  1303               	bcf	3,6	;RP1=0, select bank0
  1486  01A2  1F0C               	btfss	12,6	;volatile
  1487  01A3  29A5               	goto	u5_21
  1488  01A4  29A6               	goto	u5_20
  1489  01A5                     u5_21:
  1490  01A5  29BB               	goto	i1l56
  1491  01A6                     u5_20:
  1492  01A6                     i1l901:
  1493                           
  1494                           ;PICTEMPERATURA.c: 38:         } else {
  1495  01A6  081E               	movf	30,w	;volatile
  1496  01A7  00F0               	movwf	??_isr
  1497  01A8  01F1               	clrf	??_isr+1
  1498  01A9  0870               	movf	??_isr,w
  1499  01AA  00F7               	movwf	_temperatura
  1500  01AB  0871               	movf	??_isr+1,w
  1501  01AC  00F8               	movwf	_temperatura+1
  1502                           
  1503                           ;PICTEMPERATURA.c: 39:             PORTBbits.RB3 = 0;
  1504  01AD  0877               	movf	_temperatura,w
  1505  01AE  0088               	movwf	8	;volatile
  1506  01AF                     i1l903:
  1507                           
  1508                           ;PICTEMPERATURA.c: 40:             PORTBbits.RB4 = 0;
  1509  01AF  130C               	bcf	12,6	;volatile
  1510                           
  1511                           ;PICTEMPERATURA.c: 41:             PORTBbits.RB5 = 1;
  1512  01B0  30E4               	movlw	228
  1513  01B1  00F0               	movwf	??_isr
  1514  01B2                     u24_27:
  1515  01B2  29B3               	nop2
  1516  01B3  29B4               	nop2
  1517  01B4  0BF0               	decfsz	??_isr,f
  1518  01B5  29B2               	goto	u24_27
  1519  01B6  29B7               	nop2
  1520  01B7  0000               	nop
  1521  01B8                     i1l905:
  1522                           
  1523                           ;PICTEMPERATURA.c: 42:         }
  1524  01B8  1283               	bcf	3,5	;RP0=0, select bank0
  1525  01B9  1303               	bcf	3,6	;RP1=0, select bank0
  1526  01BA  149F               	bsf	31,1	;volatile
  1527  01BB                     i1l56:
  1528  01BB  0873               	movf	??_isr+3,w
  1529  01BC  008A               	movwf	10
  1530  01BD  0E72               	swapf	??_isr+2,w
  1531  01BE  0083               	movwf	3
  1532  01BF  0EFE               	swapf	btemp,f
  1533  01C0  0E7E               	swapf	btemp,w
  1534  01C1  0009               	retfie
  1535  01C2                     __end_of_isr:
  1536  007E                     btemp	set	126	;btemp
  1537  007E                     wtemp0	set	126
  1538                           
  1539                           	psect	intentry
  1540  0004                     __pintentry:	
  1541                           ;incstack = 0
  1542                           ; Regs used in _isr: [wreg]
  1543                           
  1544  0004                     interrupt_function:
  1545  007E                     saved_w	set	btemp
  1546  0004  00FE               	movwf	btemp
  1547  0005  0E03               	swapf	3,w
  1548  0006  00F2               	movwf	??_isr+2
  1549  0007  080A               	movf	10,w
  1550  0008  00F3               	movwf	??_isr+3
  1551  0009  120A  118A  29A0   	ljmp	_isr
  1552                           
  1553                           	psect	config
  1554                           
  1555                           ;Config register CONFIG1 @ 0x2007
  1556                           ;	Oscillator Selection bits
  1557                           ;	FOSC = HS, HS oscillator: High-speed crystal/resonator on RA6/OSC2/CLKOUT and RA7/OSC1
      +                          /CLKIN
  1558                           ;	Watchdog Timer Enable bit
  1559                           ;	WDTE = OFF, WDT disabled and can be enabled by SWDTEN bit of the WDTCON register
  1560                           ;	Power-up Timer Enable bit
  1561                           ;	PWRTE = OFF, PWRT disabled
  1562                           ;	RE3/MCLR pin function select bit
  1563                           ;	MCLRE = 0x1, unprogrammed default
  1564                           ;	Code Protection bit
  1565                           ;	CP = OFF, Program memory code protection is disabled
  1566                           ;	Data Code Protection bit
  1567                           ;	CPD = OFF, Data memory code protection is disabled
  1568                           ;	Brown Out Reset Selection bits
  1569                           ;	BOREN = ON, BOR enabled
  1570                           ;	Internal External Switchover bit
  1571                           ;	IESO = 0x1, unprogrammed default
  1572                           ;	Fail-Safe Clock Monitor Enabled bit
  1573                           ;	FCMEN = 0x1, unprogrammed default
  1574                           ;	Low Voltage Programming Enable bit
  1575                           ;	LVP = OFF, RB3 pin has digital I/O, HV on MCLR must be used for programming
  1576                           ;	In-Circuit Debugger Mode bit
  1577                           ;	DEBUG = 0x1, unprogrammed default
  1578  2007                     	org	8199
  1579  2007  2FF2               	dw	12274
  1580                           
  1581                           ;Config register CONFIG2 @ 0x2008
  1582                           ;	Brown-out Reset Selection bit
  1583                           ;	BOR4V = 0x1, unprogrammed default
  1584                           ;	Flash Program Memory Self Write Enable bits
  1585                           ;	WRT = OFF, Write protection off
  1586  2008                     	org	8200
  1587  2008  3FFF               	dw	16383

Data Sizes:
    Strings     0
    Constant    0
    Data        0
    BSS         3
    Persistent  0
    Stack       0

Auto Spaces:
    Space          Size  Autos    Used
    COMMON           14      7      10
    BANK0            80      2       2
    BANK1            80      0       0
    BANK3            96      0       0
    BANK2            96      0       0

Pointer List with Targets:

    None.

Critical Paths under _main in COMMON

    _main->_ADC
    _setup->_spiInit

Critical Paths under _isr in COMMON

    None.

Critical Paths under _main in BANK0

    _main->_ADC
    _setup->_spiInit

Critical Paths under _isr in BANK0

    None.

Critical Paths under _main in BANK1

    None.

Critical Paths under _isr in BANK1

    None.

Critical Paths under _main in BANK3

    None.

Critical Paths under _isr in BANK3

    None.

Critical Paths under _main in BANK2

    None.

Critical Paths under _isr in BANK2

    None.

Call Graph Tables:

 ---------------------------------------------------------------------------------
 (Depth) Function   	        Calls       Base Space   Used Autos Params    Refs
 ---------------------------------------------------------------------------------
 (0) _main                                                 1     1      0     685
                                              1 BANK0      1     1      0
                                _ADC
                              _setup
                           _spiWrite
 ---------------------------------------------------------------------------------
 (1) _spiWrite                                             1     1      0      15
                                              4 COMMON     1     1      0
 ---------------------------------------------------------------------------------
 (1) _setup                                                0     0      0     456
                            _spiInit
 ---------------------------------------------------------------------------------
 (2) _spiInit                                              4     1      3     456
                                              4 COMMON     3     0      3
                                              0 BANK0      1     1      0
 ---------------------------------------------------------------------------------
 (1) _ADC                                                  4     3      1     214
                                              4 COMMON     3     2      1
                                              0 BANK0      1     1      0
 ---------------------------------------------------------------------------------
 Estimated maximum stack depth 2
 ---------------------------------------------------------------------------------
 (Depth) Function   	        Calls       Base Space   Used Autos Params    Refs
 ---------------------------------------------------------------------------------
 (3) _isr                                                  4     4      0       0
                                              0 COMMON     4     4      0
 ---------------------------------------------------------------------------------
 Estimated maximum stack depth 3
 ---------------------------------------------------------------------------------

 Call Graph Graphs:

 _main (ROOT)
   _ADC
   _setup
     _spiInit
   _spiWrite

 _isr (ROOT)

 Address spaces:
Name               Size   Autos  Total    Cost      Usage
BITCOMMON            E      0       0       0        0.0%
EEDATA             100      0       0       0        0.0%
NULL                 0      0       0       0        0.0%
CODE                 0      0       0       0        0.0%
COMMON               E      7       A       1       71.4%
BITSFR0              0      0       0       1        0.0%
SFR0                 0      0       0       1        0.0%
BITSFR1              0      0       0       2        0.0%
SFR1                 0      0       0       2        0.0%
STACK                0      0       0       2        0.0%
ABS                  0      0       C       3        0.0%
BITBANK0            50      0       0       4        0.0%
BITSFR3              0      0       0       4        0.0%
SFR3                 0      0       0       4        0.0%
BANK0               50      2       2       5        2.5%
BITSFR2              0      0       0       5        0.0%
SFR2                 0      0       0       5        0.0%
BITBANK1            50      0       0       6        0.0%
BANK1               50      0       0       7        0.0%
BITBANK3            60      0       0       8        0.0%
BANK3               60      0       0       9        0.0%
BITBANK2            60      0       0      10        0.0%
BANK2               60      0       0      11        0.0%
DATA                 0      0       C      12        0.0%


Microchip Technology PIC Macro Assembler V2.31 build 20201012212115 
Symbol Table                                                                                   Tue Feb 23 20:23:04 2021

            _SSPSTATbits 0094                       l71 019F                       l64 0162  
                     l94 0031                       l96 003C                       l97 0049  
                     l98 0056                       l99 0063                      l100 0070  
                    l101 007D                      l103 0096                      l104 00A3  
                    l105 00B0                      l106 00BD                      l107 00CA  
                    l108 00D7                      l129 0122                      l145 01DA  
                    l146 01DF                      l155 01E5                      _ADC 0016  
                    l895 01E1                      u200 0143                      u201 0142  
                    u210 014E                      u211 014C                      u220 0157  
                    u212 014F                      u221 0155                      u230 015E  
                    u222 0158                      u231 015D                      u170 01CE  
                    u171 01CD                      u180 002D                      u181 002C  
                    u190 011F                      u191 011E                      _isr 01A0  
                   ?_ADC 0074                     l1201 0025                     l1211 005C  
                   l1203 002D                     l1221 008C                     l1213 0069  
                   l1205 0037                     l1301 0147                     l1231 00D0  
                   l1223 009C                     l1215 0076                     l1207 0042  
                   l1151 01D9                     l1143 01C5                     l1303 015E  
                   l1241 011F                     l1233 00DD                     l1225 00A9  
                   l1217 0083                     l1209 004F                     l1145 01CE  
                   l1161 017D                     l1153 0169                     l1227 00B6  
                   l1219 0089                     l1147 01D2                     l1171 018C  
                   l1163 0180                     l1155 0173                     l1325 00EE  
                   l1229 00C3                     l1237 00E4                     l1149 01D4  
                   l1181 0192                     l1173 018D                     l1165 0183  
                   l1157 0177                     l1239 011A                     l1191 001E  
                   l1183 0193                     l1175 018E                     l1167 0186  
                   l1159 017A                     l1193 0021                     l1185 0196  
                   l1177 018F                     l1169 0189                     l1195 0022  
                   l1187 0019                     l1179 0191                     l1291 0133  
                   l1283 0123                     l1197 0023                     l1189 001A  
                   l1293 0134                     l1285 0128                     l1199 0024  
                   l1295 0135                     l1287 012F                     l1297 013B  
                   l1289 0132                     l1299 0143                     ?_isr 0070  
                   i1l56 01BB                     u5_20 01A6                     u5_21 01A5  
                   _main 0123                     btemp 007E                     start 000C  
                  ??_ADC 0075                    ??_isr 0070                    ?_main 0070  
                  _ANSEL 0188                    i1l901 01A6                    i1l903 01AF  
                  i1l905 01B8                    i1l899 01A0                    u24_27 01B2  
                  _PORTA 0005                    _PORTB 0006                    _PORTC 0007  
                  _PORTD 0008                    _PORTE 0009                    _TRISA 0085  
                  _TRISB 0086                    _TRISC 0087                    _TRISD 0088  
                  _TRISE 0089                    _setup 0169                    pclath 000A  
        __end_of_spiInit 01E0                    status 0003                    wtemp0 007E  
        __initialization 000F             __end_of_main 0169                   ADC@ANA 0020  
                 ??_main 0021                   _ADRESH 001E                   ?_setup 0070  
                 _ANSELH 0189                   _TRISC3 043B                   _TRISC5 043D  
                 _SSPCON 0014                   _SSPBUF 0013                   saved_w 007E  
       __end_of_spiWrite 01E6                ??_spiInit 0077  __end_of__initialization 0012  
         ADC@justificado 0074           __pcstackCOMMON 0070            __end_of_setup 01A0  
                ??_setup 0077               __pmaintext 0123               __pintentry 0004  
                _SSPSTAT 0094                ?_spiWrite 0070                _ANSELbits 0188  
                __ptext1 01E0                  __ptext2 0169                  __ptext3 01C2  
                __ptext4 0016                  __ptext5 01A0             __size_of_ADC 010D  
           __size_of_isr 0022                  _spiInit 01C2     end_of_initialization 0012  
             ??_spiWrite 0074                _PORTBbits 0006                _TRISAbits 0085  
              _TRISBbits 0086                _TRISEbits 0089              spiWrite@dat 0074  
    start_initialization 000F              __end_of_ADC 0123              __end_of_isr 01C2  
            __pbssCOMMON 0077                ___latbits 0002            __pcstackBANK0 0020  
      __size_of_spiWrite 0006                 ?_spiInit 0074           __size_of_setup 0037  
   spiInit@sTransmitEdge 0076        interrupt_function 0004                 _PIE1bits 008C  
     spiInit@sDataSample 0074                 _PIR1bits 000C               _ADCON0bits 001F  
             _ADCON1bits 009F               _ANSELHbits 0189         __size_of_spiInit 001E  
               _contador 0079            __size_of_main 0046                 _spiWrite 01E0  
           spiInit@sType 0020        spiInit@sClockIdle 0075               _INTCONbits 000B  
               intlevel1 0000              _temperatura 0077  
